target datalayout = "e-m:e-p270:32:32-p271:32:32-p272:64:64-i64:64-i128:128-f80:128-n8:16:32:64-S128"
target triple = "x86_64-unknown-linux-gnu"

%"class.zmq::router_t" = type <{ %"class.zmq::routing_socket_base_t", %"class.zmq::fq_t", i8, i8, [6 x i8], %"class.zmq::msg_t", %"class.zmq::msg_t", ptr, i8, i8, [6 x i8], %"class.std::set.67", ptr, i8, [3 x i8], i32, i8, i8, i8, i8, [4 x i8] }>
%"class.zmq::routing_socket_base_t" = type { %"class.zmq::socket_base_t.base", %"class.std::map.50", %"class.std::__cxx11::basic_string" }
%"class.zmq::socket_base_t.base" = type <{ %"class.zmq::own_t.base", [4 x i8], %"class.zmq::array_item_t.base", [4 x i8], %"struct.zmq::i_poll_events", %"struct.zmq::i_pipe_events", %"class.zmq::mutex_t", %"class.std::multimap", %"class.zmq::socket_base_t::inprocs_t", i32, i8, i8, [2 x i8], ptr, %"class.zmq::array_t", ptr, ptr, i64, i32, i8, [3 x i8], %"class.zmq::clock_t", ptr, i64, %"class.std::__cxx11::basic_string", i8, [7 x i8], ptr, %"class.zmq::mutex_t", i8 }>
%"class.zmq::own_t.base" = type <{ %"class.zmq::object_t.base", [4 x i8], %"struct.zmq::options_t", i8, [7 x i8], %"class.zmq::atomic_counter_t", i64, ptr, %"class.std::set.28", i32 }>
%"class.zmq::object_t.base" = type <{ ptr, ptr, i32 }>
%"struct.zmq::options_t" = type { i32, i32, i64, i8, [256 x i8], i32, i32, i32, i32, i32, i32, i32, i32, i8, %"struct.zmq::atomic_value_t", i32, i32, i32, i32, i32, i32, i64, i32, i32, i8, i32, i8, i8, i8, i8, i8, %"class.std::__cxx11::basic_string", %"class.std::__cxx11::basic_string", %"class.std::__cxx11::basic_string", i32, i32, i32, i32, %"class.std::vector", %"class.std::set", %"class.std::set", %"class.std::set.6", i32, i32, %"class.std::__cxx11::basic_string", %"class.std::__cxx11::basic_string", %"class.std::__cxx11::basic_string", [32 x i8], [32 x i8], [32 x i8], %"class.std::__cxx11::basic_string", %"class.std::__cxx11::basic_string", i32, i32, i8, i32, i8, i32, i8, i16, i32, i32, i32, %"class.std::__cxx11::basic_string", i8, i8, i8, i32, i32, i8, i32, %"class.std::map", i32, %"class.std::__cxx11::basic_string", %"class.std::__cxx11::basic_string", %"class.std::__cxx11::basic_string", %"class.std::__cxx11::basic_string", i8, %"class.std::vector.21", i8, %"class.std::vector.21", i8, %"class.std::vector.21", i8, i32, i8, i32, i32, i32, i32, i32, i8, i32 }
%"struct.zmq::atomic_value_t" = type { %"struct.std::atomic" }
%"struct.std::atomic" = type { %"struct.std::__atomic_base" }
%"struct.std::__atomic_base" = type { i32 }
%"class.std::vector" = type { %"struct.std::_Vector_base" }
%"struct.std::_Vector_base" = type { %"struct.std::_Vector_base<zmq::tcp_address_mask_t, std::allocator<zmq::tcp_address_mask_t>>::_Vector_impl" }
%"struct.std::_Vector_base<zmq::tcp_address_mask_t, std::allocator<zmq::tcp_address_mask_t>>::_Vector_impl" = type { %"struct.std::_Vector_base<zmq::tcp_address_mask_t, std::allocator<zmq::tcp_address_mask_t>>::_Vector_impl_data" }
%"struct.std::_Vector_base<zmq::tcp_address_mask_t, std::allocator<zmq::tcp_address_mask_t>>::_Vector_impl_data" = type { ptr, ptr, ptr }
%"class.std::set" = type { %"class.std::_Rb_tree" }
%"class.std::_Rb_tree" = type { %"struct.std::_Rb_tree<unsigned int, unsigned int, std::_Identity<unsigned int>, std::less<unsigned int>>::_Rb_tree_impl" }
%"struct.std::_Rb_tree<unsigned int, unsigned int, std::_Identity<unsigned int>, std::less<unsigned int>>::_Rb_tree_impl" = type { %"struct.std::_Rb_tree_key_compare", %"struct.std::_Rb_tree_header" }
%"struct.std::_Rb_tree_key_compare" = type { %"struct.std::less" }
%"struct.std::less" = type { i8 }
%"struct.std::_Rb_tree_header" = type { %"struct.std::_Rb_tree_node_base", i64 }
%"struct.std::_Rb_tree_node_base" = type { i32, ptr, ptr, ptr }
%"class.std::set.6" = type { %"class.std::_Rb_tree.7" }
%"class.std::_Rb_tree.7" = type { %"struct.std::_Rb_tree<int, int, std::_Identity<int>, std::less<int>>::_Rb_tree_impl" }
%"struct.std::_Rb_tree<int, int, std::_Identity<int>, std::less<int>>::_Rb_tree_impl" = type { %"struct.std::_Rb_tree_key_compare.11", %"struct.std::_Rb_tree_header" }
%"struct.std::_Rb_tree_key_compare.11" = type { %"struct.std::less.12" }
%"struct.std::less.12" = type { i8 }
%"class.std::map" = type { %"class.std::_Rb_tree.14" }
%"class.std::_Rb_tree.14" = type { %"struct.std::_Rb_tree<std::__cxx11::basic_string<char>, std::pair<const std::__cxx11::basic_string<char>, std::__cxx11::basic_string<char>>, std::_Select1st<std::pair<const std::__cxx11::basic_string<char>, std::__cxx11::basic_string<char>>>, std::less<std::__cxx11::basic_string<char>>>::_Rb_tree_impl" }
%"struct.std::_Rb_tree<std::__cxx11::basic_string<char>, std::pair<const std::__cxx11::basic_string<char>, std::__cxx11::basic_string<char>>, std::_Select1st<std::pair<const std::__cxx11::basic_string<char>, std::__cxx11::basic_string<char>>>, std::less<std::__cxx11::basic_string<char>>>::_Rb_tree_impl" = type { %"struct.std::_Rb_tree_key_compare.18", %"struct.std::_Rb_tree_header" }
%"struct.std::_Rb_tree_key_compare.18" = type { %"struct.std::less.19" }
%"struct.std::less.19" = type { i8 }
%"class.std::vector.21" = type { %"struct.std::_Vector_base.22" }
%"struct.std::_Vector_base.22" = type { %"struct.std::_Vector_base<unsigned char, std::allocator<unsigned char>>::_Vector_impl" }
%"struct.std::_Vector_base<unsigned char, std::allocator<unsigned char>>::_Vector_impl" = type { %"struct.std::_Vector_base<unsigned char, std::allocator<unsigned char>>::_Vector_impl_data" }
%"struct.std::_Vector_base<unsigned char, std::allocator<unsigned char>>::_Vector_impl_data" = type { ptr, ptr, ptr }
%"class.zmq::atomic_counter_t" = type { %"struct.std::atomic.26", [4 x i8] }
%"struct.std::atomic.26" = type { %"struct.std::__atomic_base.27" }
%"struct.std::__atomic_base.27" = type { i32 }
%"class.std::set.28" = type { %"class.std::_Rb_tree.29" }
%"class.std::_Rb_tree.29" = type { %"struct.std::_Rb_tree<zmq::own_t *, zmq::own_t *, std::_Identity<zmq::own_t *>, std::less<zmq::own_t *>>::_Rb_tree_impl" }
%"struct.std::_Rb_tree<zmq::own_t *, zmq::own_t *, std::_Identity<zmq::own_t *>, std::less<zmq::own_t *>>::_Rb_tree_impl" = type { %"struct.std::_Rb_tree_key_compare.33", %"struct.std::_Rb_tree_header" }
%"struct.std::_Rb_tree_key_compare.33" = type { %"struct.std::less.34" }
%"struct.std::less.34" = type { i8 }
%"class.zmq::array_item_t.base" = type <{ ptr, i32 }>
%"struct.zmq::i_poll_events" = type { ptr }
%"struct.zmq::i_pipe_events" = type { ptr }
%"class.std::multimap" = type { %"class.std::_Rb_tree.36" }
%"class.std::_Rb_tree.36" = type { %"struct.std::_Rb_tree<std::__cxx11::basic_string<char>, std::pair<const std::__cxx11::basic_string<char>, std::pair<zmq::own_t *, zmq::pipe_t *>>, std::_Select1st<std::pair<const std::__cxx11::basic_string<char>, std::pair<zmq::own_t *, zmq::pipe_t *>>>, std::less<std::__cxx11::basic_string<char>>>::_Rb_tree_impl" }
%"struct.std::_Rb_tree<std::__cxx11::basic_string<char>, std::pair<const std::__cxx11::basic_string<char>, std::pair<zmq::own_t *, zmq::pipe_t *>>, std::_Select1st<std::pair<const std::__cxx11::basic_string<char>, std::pair<zmq::own_t *, zmq::pipe_t *>>>, std::less<std::__cxx11::basic_string<char>>>::_Rb_tree_impl" = type { %"struct.std::_Rb_tree_key_compare.18", %"struct.std::_Rb_tree_header" }
%"class.zmq::socket_base_t::inprocs_t" = type { %"class.std::multimap.40" }
%"class.std::multimap.40" = type { %"class.std::_Rb_tree.41" }
%"class.std::_Rb_tree.41" = type { %"struct.std::_Rb_tree<std::__cxx11::basic_string<char>, std::pair<const std::__cxx11::basic_string<char>, zmq::pipe_t *>, std::_Select1st<std::pair<const std::__cxx11::basic_string<char>, zmq::pipe_t *>>, std::less<std::__cxx11::basic_string<char>>>::_Rb_tree_impl" }
%"struct.std::_Rb_tree<std::__cxx11::basic_string<char>, std::pair<const std::__cxx11::basic_string<char>, zmq::pipe_t *>, std::_Select1st<std::pair<const std::__cxx11::basic_string<char>, zmq::pipe_t *>>, std::less<std::__cxx11::basic_string<char>>>::_Rb_tree_impl" = type { %"struct.std::_Rb_tree_key_compare.18", %"struct.std::_Rb_tree_header" }
%"class.zmq::array_t" = type { %"class.std::vector.45" }
%"class.std::vector.45" = type { %"struct.std::_Vector_base.46" }
%"struct.std::_Vector_base.46" = type { %"struct.std::_Vector_base<zmq::pipe_t *, std::allocator<zmq::pipe_t *>>::_Vector_impl" }
%"struct.std::_Vector_base<zmq::pipe_t *, std::allocator<zmq::pipe_t *>>::_Vector_impl" = type { %"struct.std::_Vector_base<zmq::pipe_t *, std::allocator<zmq::pipe_t *>>::_Vector_impl_data" }
%"struct.std::_Vector_base<zmq::pipe_t *, std::allocator<zmq::pipe_t *>>::_Vector_impl_data" = type { ptr, ptr, ptr }
%"class.zmq::clock_t" = type { i64, i64 }
%"class.zmq::mutex_t" = type <{ %union.pthread_mutex_t, %union.pthread_mutexattr_t, [4 x i8] }>
%union.pthread_mutex_t = type { %struct.__pthread_mutex_s }
%struct.__pthread_mutex_s = type { i32, i32, i32, i32, i32, i16, i16, %struct.__pthread_internal_list }
%struct.__pthread_internal_list = type { ptr, ptr }
%union.pthread_mutexattr_t = type { i32 }
%"class.std::map.50" = type { %"class.std::_Rb_tree.51" }
%"class.std::_Rb_tree.51" = type { %"struct.std::_Rb_tree<zmq::blob_t, std::pair<const zmq::blob_t, zmq::routing_socket_base_t::out_pipe_t>, std::_Select1st<std::pair<const zmq::blob_t, zmq::routing_socket_base_t::out_pipe_t>>, std::less<zmq::blob_t>>::_Rb_tree_impl" }
%"struct.std::_Rb_tree<zmq::blob_t, std::pair<const zmq::blob_t, zmq::routing_socket_base_t::out_pipe_t>, std::_Select1st<std::pair<const zmq::blob_t, zmq::routing_socket_base_t::out_pipe_t>>, std::less<zmq::blob_t>>::_Rb_tree_impl" = type { %"struct.std::_Rb_tree_key_compare.55", %"struct.std::_Rb_tree_header" }
%"struct.std::_Rb_tree_key_compare.55" = type { %"struct.std::less.56" }
%"struct.std::less.56" = type { i8 }
%"class.std::__cxx11::basic_string" = type { %"struct.std::__cxx11::basic_string<char>::_Alloc_hider", i64, %union.anon }
%"struct.std::__cxx11::basic_string<char>::_Alloc_hider" = type { ptr }
%union.anon = type { i64, [8 x i8] }
%"class.zmq::fq_t" = type <{ %"class.zmq::array_t.58", i64, i64, i8, [7 x i8] }>
%"class.zmq::array_t.58" = type { %"class.std::vector.45" }
%"class.zmq::msg_t" = type { %union.anon.59 }
%union.anon.59 = type { %struct.anon }
%struct.anon = type { ptr, [34 x i8], i8, i8, i32, %"union.zmq::msg_t::group_t" }
%"union.zmq::msg_t::group_t" = type { %struct.anon.61 }
%struct.anon.61 = type { i8, ptr }
%"class.std::set.67" = type { %"class.std::_Rb_tree.68" }
%"class.std::_Rb_tree.68" = type { %"struct.std::_Rb_tree<zmq::pipe_t *, zmq::pipe_t *, std::_Identity<zmq::pipe_t *>, std::less<zmq::pipe_t *>>::_Rb_tree_impl" }
%"struct.std::_Rb_tree<zmq::pipe_t *, zmq::pipe_t *, std::_Identity<zmq::pipe_t *>, std::less<zmq::pipe_t *>>::_Rb_tree_impl" = type { %"struct.std::_Rb_tree_key_compare.72", %"struct.std::_Rb_tree_header" }
%"struct.std::_Rb_tree_key_compare.72" = type { %"struct.std::less.73" }
%"struct.std::less.73" = type { i8 }
%"class.zmq::own_t" = type <{ %"class.zmq::object_t.base", [4 x i8], %"struct.zmq::options_t", i8, [7 x i8], %"class.zmq::atomic_counter_t", i64, ptr, %"class.std::set.28", i32, [4 x i8] }>

; Function Attrs: mustprogress uwtable
define noundef i32 @_ZN3zmq8router_t11xsetsockoptEiPKvm(ptr noundef nonnull align 8 dereferenceable(2180) %this, i32 noundef %option_, ptr noundef %optval_, i64 noundef %optvallen_) unnamed_addr #0 align 2 {
entry:
  %retval = alloca i32, align 4
  %this.addr = alloca ptr, align 8
  %option_.addr = alloca i32, align 4
  %optval_.addr = alloca ptr, align 8
  %optvallen_.addr = alloca i64, align 8
  %is_int = alloca i8, align 1
  %value = alloca i32, align 4
  store ptr %this, ptr %this.addr, align 8
  store i32 %option_, ptr %option_.addr, align 4
  store ptr %optval_, ptr %optval_.addr, align 8
  store i64 %optvallen_, ptr %optvallen_.addr, align 8
  %this1 = load ptr, ptr %this.addr, align 8
  %0 = load i64, ptr %optvallen_.addr, align 8
  %cmp = icmp eq i64 %0, 4
  %frombool = zext i1 %cmp to i8
  store i8 %frombool, ptr %is_int, align 1
  store i32 0, ptr %value, align 4
  %1 = load i8, ptr %is_int, align 1
  %tobool = trunc i8 %1 to i1
  br i1 %tobool, label %if.then, label %if.end

if.then:                                          ; preds = %entry
  %2 = load ptr, ptr %optval_.addr, align 8
  call void @llvm.memcpy.p0.p0.i64(ptr align 4 %value, ptr align 1 %2, i64 4, i1 false)
  br label %if.end

if.end:                                           ; preds = %if.then, %entry
  %3 = load i32, ptr %option_.addr, align 4
  switch i32 %3, label %sw.default [
    i32 41, label %sw.bb
    i32 33, label %sw.bb13
    i32 51, label %sw.bb21
    i32 56, label %sw.bb29
    i32 97, label %sw.bb37
  ]

sw.bb:                                            ; preds = %if.end
  %4 = load i8, ptr %is_int, align 1
  %tobool2 = trunc i8 %4 to i1
  br i1 %tobool2, label %land.lhs.true, label %if.end12

land.lhs.true:                                    ; preds = %sw.bb
  %5 = load i32, ptr %value, align 4
  %cmp3 = icmp sge i32 %5, 0
  br i1 %cmp3, label %if.then4, label %if.end12

if.then4:                                         ; preds = %land.lhs.true
  %6 = load i32, ptr %value, align 4
  %cmp5 = icmp ne i32 %6, 0
  %_raw_socket = getelementptr inbounds %"class.zmq::router_t", ptr %this1, i32 0, i32 17
  %frombool6 = zext i1 %cmp5 to i8
  store i8 %frombool6, ptr %_raw_socket, align 1
  %_raw_socket7 = getelementptr inbounds %"class.zmq::router_t", ptr %this1, i32 0, i32 17
  %7 = load i8, ptr %_raw_socket7, align 1
  %tobool8 = trunc i8 %7 to i1
  br i1 %tobool8, label %if.then9, label %if.end11

if.then9:                                         ; preds = %if.then4
  %options = getelementptr inbounds %"class.zmq::own_t", ptr %this1, i32 0, i32 2
  %recv_routing_id = getelementptr inbounds %"struct.zmq::options_t", ptr %options, i32 0, i32 28
  store i8 0, ptr %recv_routing_id, align 2
  %options10 = getelementptr inbounds %"class.zmq::own_t", ptr %this1, i32 0, i32 2
  %raw_socket = getelementptr inbounds %"struct.zmq::options_t", ptr %options10, i32 0, i32 29
  store i8 1, ptr %raw_socket, align 1
  br label %if.end11

if.end11:                                         ; preds = %if.then9, %if.then4
  store i32 0, ptr %retval, align 4
  br label %return

if.end12:                                         ; preds = %land.lhs.true, %sw.bb
  br label %sw.epilog

sw.bb13:                                          ; preds = %if.end
  %8 = load i8, ptr %is_int, align 1
  %tobool14 = trunc i8 %8 to i1
  br i1 %tobool14, label %land.lhs.true15, label %if.end20

land.lhs.true15:                                  ; preds = %sw.bb13
  %9 = load i32, ptr %value, align 4
  %cmp16 = icmp sge i32 %9, 0
  br i1 %cmp16, label %if.then17, label %if.end20

if.then17:                                        ; preds = %land.lhs.true15
  %10 = load i32, ptr %value, align 4
  %cmp18 = icmp ne i32 %10, 0
  %_mandatory = getelementptr inbounds %"class.zmq::router_t", ptr %this1, i32 0, i32 16
  %frombool19 = zext i1 %cmp18 to i8
  store i8 %frombool19, ptr %_mandatory, align 8
  store i32 0, ptr %retval, align 4
  br label %return

if.end20:                                         ; preds = %land.lhs.true15, %sw.bb13
  br label %sw.epilog

sw.bb21:                                          ; preds = %if.end
  %11 = load i8, ptr %is_int, align 1
  %tobool22 = trunc i8 %11 to i1
  br i1 %tobool22, label %land.lhs.true23, label %if.end28

land.lhs.true23:                                  ; preds = %sw.bb21
  %12 = load i32, ptr %value, align 4
  %cmp24 = icmp sge i32 %12, 0
  br i1 %cmp24, label %if.then25, label %if.end28

if.then25:                                        ; preds = %land.lhs.true23
  %13 = load i32, ptr %value, align 4
  %cmp26 = icmp ne i32 %13, 0
  %_probe_router = getelementptr inbounds %"class.zmq::router_t", ptr %this1, i32 0, i32 18
  %frombool27 = zext i1 %cmp26 to i8
  store i8 %frombool27, ptr %_probe_router, align 2
  store i32 0, ptr %retval, align 4
  br label %return

if.end28:                                         ; preds = %land.lhs.true23, %sw.bb21
  br label %sw.epilog

sw.bb29:                                          ; preds = %if.end
  %14 = load i8, ptr %is_int, align 1
  %tobool30 = trunc i8 %14 to i1
  br i1 %tobool30, label %land.lhs.true31, label %if.end36

land.lhs.true31:                                  ; preds = %sw.bb29
  %15 = load i32, ptr %value, align 4
  %cmp32 = icmp sge i32 %15, 0
  br i1 %cmp32, label %if.then33, label %if.end36

if.then33:                                        ; preds = %land.lhs.true31
  %16 = load i32, ptr %value, align 4
  %cmp34 = icmp ne i32 %16, 0
  %_handover = getelementptr inbounds %"class.zmq::router_t", ptr %this1, i32 0, i32 19
  %frombool35 = zext i1 %cmp34 to i8
  store i8 %frombool35, ptr %_handover, align 1
  store i32 0, ptr %retval, align 4
  br label %return

if.end36:                                         ; preds = %land.lhs.true31, %sw.bb29
  br label %sw.epilog

sw.bb37:                                          ; preds = %if.end
  %17 = load i8, ptr %is_int, align 1
  %tobool38 = trunc i8 %17 to i1
  br i1 %tobool38, label %land.lhs.true39, label %if.end45

land.lhs.true39:                                  ; preds = %sw.bb37
  %18 = load i32, ptr %value, align 4
  %cmp40 = icmp sge i32 %18, 0
  br i1 %cmp40, label %land.lhs.true41, label %if.end45

land.lhs.true41:                                  ; preds = %land.lhs.true39
  %19 = load i32, ptr %value, align 4
  %cmp42 = icmp sle i32 %19, 3
  br i1 %cmp42, label %if.then43, label %if.end45

if.then43:                                        ; preds = %land.lhs.true41
  %20 = load i32, ptr %value, align 4
  %options44 = getelementptr inbounds %"class.zmq::own_t", ptr %this1, i32 0, i32 2
  %router_notify = getelementptr inbounds %"struct.zmq::options_t", ptr %options44, i32 0, i32 70
  store i32 %20, ptr %router_notify, align 8
  store i32 0, ptr %retval, align 4
  br label %return

if.end45:                                         ; preds = %land.lhs.true41, %land.lhs.true39, %sw.bb37
  br label %sw.epilog

sw.default:                                       ; preds = %if.end
  %21 = load i32, ptr %option_.addr, align 4
  %22 = load ptr, ptr %optval_.addr, align 8
  %23 = load i64, ptr %optvallen_.addr, align 8
  %call = call noundef i32 @_ZN3zmq21routing_socket_base_t11xsetsockoptEiPKvm(ptr noundef nonnull align 8 dereferenceable(1912) %this1, i32 noundef %21, ptr noundef %22, i64 noundef %23)
  store i32 %call, ptr %retval, align 4
  br label %return

sw.epilog:                                        ; preds = %if.end45, %if.end36, %if.end28, %if.end20, %if.end12
  %call46 = call ptr @__errno_location() #16
  store i32 22, ptr %call46, align 4
  store i32 -1, ptr %retval, align 4
  br label %return

return:                                           ; preds = %sw.epilog, %sw.default, %if.then43, %if.then33, %if.then25, %if.then17, %if.end11
  %24 = load i32, ptr %retval, align 4
  ret i32 %24
}