; Function Attrs: mustprogress uwtable
define noundef i32 @_ZN3zmq8router_t11xsetsockoptEiPKvm(ptr noundef nonnull align 8 dereferenceable(2180) %this, i32 noundef %option_, ptr noundef %optval_, i64 noundef %optvallen_) unnamed_addr #0 align 2 {
entry:
  %cmp = icmp eq i64 %optvallen_, 4
  br i1 %cmp, label %if.then, label %if.end

if.then:                                          ; preds = %entry
  %value.0.copyload = load i32, ptr %optval_, align 1
  br label %if.end

if.end:                                           ; preds = %if.then, %entry
  %value.0 = phi i32 [ %value.0.copyload, %if.then ], [ 0, %entry ]
  switch i32 %option_, label %sw.default [
    i32 41, label %sw.bb
    i32 33, label %sw.bb13
    i32 51, label %sw.bb21
    i32 56, label %sw.bb29
    i32 97, label %sw.bb37
  ]

sw.bb:                                            ; preds = %if.end
  %cmp3 = icmp sgt i32 %value.0, -1
  %or.cond = select i1 %cmp, i1 %cmp3, i1 false
  br i1 %or.cond, label %if.then4, label %sw.epilog

if.then4:                                         ; preds = %sw.bb
  %cmp5 = icmp ne i32 %value.0, 0
  %_raw_socket = getelementptr inbounds i8, ptr %this, i64 2177
  %frombool6 = zext i1 %cmp5 to i8
  store i8 %frombool6, ptr %_raw_socket, align 1
  br i1 %cmp5, label %if.then9, label %return

if.then9:                                         ; preds = %if.then4
  %recv_routing_id = getelementptr inbounds i8, ptr %this, i64 394
  store i8 0, ptr %recv_routing_id, align 2
  %raw_socket = getelementptr inbounds i8, ptr %this, i64 395
  store i8 1, ptr %raw_socket, align 1
  br label %return

sw.bb13:                                          ; preds = %if.end
  %cmp16 = icmp sgt i32 %value.0, -1
  %or.cond1 = select i1 %cmp, i1 %cmp16, i1 false
  br i1 %or.cond1, label %if.then17, label %sw.epilog

if.then17:                                        ; preds = %sw.bb13
  %cmp18 = icmp ne i32 %value.0, 0
  %_mandatory = getelementptr inbounds i8, ptr %this, i64 2176
  %frombool19 = zext i1 %cmp18 to i8
  store i8 %frombool19, ptr %_mandatory, align 8
  br label %return

sw.bb21:                                          ; preds = %if.end
  %cmp24 = icmp sgt i32 %value.0, -1
  %or.cond2 = select i1 %cmp, i1 %cmp24, i1 false
  br i1 %or.cond2, label %if.then25, label %sw.epilog

if.then25:                                        ; preds = %sw.bb21
  %cmp26 = icmp ne i32 %value.0, 0
  %_probe_router = getelementptr inbounds i8, ptr %this, i64 2178
  %frombool27 = zext i1 %cmp26 to i8
  store i8 %frombool27, ptr %_probe_router, align 2
  br label %return

sw.bb29:                                          ; preds = %if.end
  %cmp32 = icmp sgt i32 %value.0, -1
  %or.cond3 = select i1 %cmp, i1 %cmp32, i1 false
  br i1 %or.cond3, label %if.then33, label %sw.epilog

if.then33:                                        ; preds = %sw.bb29
  %cmp34 = icmp ne i32 %value.0, 0
  %_handover = getelementptr inbounds i8, ptr %this, i64 2179
  %frombool35 = zext i1 %cmp34 to i8
  store i8 %frombool35, ptr %_handover, align 1
  br label %return

sw.bb37:                                          ; preds = %if.end
  %cmp40 = icmp sgt i32 %value.0, -1
  %or.cond4 = select i1 %cmp, i1 %cmp40, i1 false
  %cmp42 = icmp slt i32 %value.0, 4
  %or.cond5 = select i1 %or.cond4, i1 %cmp42, i1 false
  br i1 %or.cond5, label %if.then43, label %sw.epilog

if.then43:                                        ; preds = %sw.bb37
  %router_notify = getelementptr inbounds i8, ptr %this, i64 1032
  store i32 %value.0, ptr %router_notify, align 8
  br label %return

sw.default:                                       ; preds = %if.end
  %call = tail call noundef i32 @_ZN3zmq21routing_socket_base_t11xsetsockoptEiPKvm(ptr noundef nonnull align 8 dereferenceable(1912) %this, i32 noundef %option_, ptr noundef %optval_, i64 noundef %optvallen_)
  br label %return

sw.epilog:                                        ; preds = %sw.bb37, %sw.bb29, %sw.bb21, %sw.bb13, %sw.bb
  %call46 = tail call ptr @__errno_location() #19
  store i32 22, ptr %call46, align 4
  br label %return

return:                                           ; preds = %if.then4, %if.then9, %sw.epilog, %sw.default, %if.then43, %if.then33, %if.then25, %if.then17
  %retval.0 = phi i32 [ %call, %sw.default ], [ 0, %if.then43 ], [ -1, %sw.epilog ], [ 0, %if.then33 ], [ 0, %if.then25 ], [ 0, %if.then17 ], [ 0, %if.then9 ], [ 0, %if.then4 ]
  ret i32 %retval.0
}